target datalayout = "e-m:e-p270:32:32-p271:32:32-p272:64:64-i64:64-i128:128-f80:128-n8:16:32:64-S128"
target triple = "x86_64-pc-linux-gnu"

@entry = internal global ptr null, align 8

; Function Attrs: nounwind uwtable
define internal i32 @ddUniqueCompareGroup(ptr noundef %0, ptr noundef %1) #0 {
  %3 = alloca ptr, align 8
  %4 = alloca ptr, align 8
  store ptr %0, ptr %3, align 8, !tbaa !49
  store ptr %1, ptr %4, align 8, !tbaa !49
  %5 = load ptr, ptr @entry, align 8, !tbaa !49
  %6 = load ptr, ptr %4, align 8, !tbaa !49
  %7 = load i32, ptr %6, align 4, !tbaa !8
  %8 = sext i32 %7 to i64
  %9 = getelementptr inbounds i32, ptr %5, i64 %8
  %10 = load i32, ptr %9, align 4, !tbaa !8
  %11 = load ptr, ptr @entry, align 8, !tbaa !49
  %12 = load ptr, ptr %3, align 8, !tbaa !49
  %13 = load i32, ptr %12, align 4, !tbaa !8
  %14 = sext i32 %13 to i64
  %15 = getelementptr inbounds i32, ptr %11, i64 %14
  %16 = load i32, ptr %15, align 4, !tbaa !8
  %17 = sub nsw i32 %10, %16
  ret i32 %17
}