; Function Attrs: mustprogress nofree norecurse nosync nounwind willreturn memory(read, inaccessiblemem: none) uwtable
define internal i32 @ddUniqueCompareGroup(ptr noundef readonly captures(none) %0, ptr noundef readonly captures(none) %1) #6 {
  %3 = load ptr, ptr @entry, align 8, !tbaa !50
  %4 = load i32, ptr %1, align 4, !tbaa !25
  %5 = sext i32 %4 to i64
  %6 = getelementptr inbounds i32, ptr %3, i64 %5
  %7 = load i32, ptr %6, align 4, !tbaa !25
  %8 = load i32, ptr %0, align 4, !tbaa !25
  %9 = sext i32 %8 to i64
  %10 = getelementptr inbounds i32, ptr %3, i64 %9
  %11 = load i32, ptr %10, align 4, !tbaa !25
  %12 = sub nsw i32 %7, %11
  ret i32 %12
}